; Function Attrs: nounwind uwtable
define internal noundef ptr @incomplete_class_get_property(ptr nocapture noundef readonly %0, ptr nocapture readnone %1, i32 noundef %2, ptr nocapture readnone %3, ptr noundef writeonly %4) #2 {
  %6 = getelementptr i8, ptr %0, i64 32
  %.val = load ptr, ptr %6, align 8
  tail call fastcc void @incomplete_class_message(ptr %.val)
  %7 = add i32 %2, -1
  %or.cond = icmp ult i32 %7, 2
  br i1 %or.cond, label %8, label %10

8:                                                ; preds = %5
  %9 = getelementptr inbounds i8, ptr %4, i64 8
  store i32 15, ptr %9, align 8
  br label %10

10:                                               ; preds = %5, %8
  %.0 = phi ptr [ %4, %8 ], [ @executor_globals, %5 ]
  ret ptr %.0
}